target datalayout = "e-m:e-p270:32:32-p271:32:32-p272:64:64-i64:64-i128:128-f80:128-n8:16:32:64-S128"
target triple = "x86_64-pc-linux-gnu"

; Function Attrs: inlinehint nounwind uwtable
define internal float @lerpf(float noundef %0, float noundef %1, float noundef %2) #10 {
  %4 = alloca float, align 4
  %5 = alloca float, align 4
  %6 = alloca float, align 4
  store float %0, ptr %4, align 4, !tbaa !67
  store float %1, ptr %5, align 4, !tbaa !67
  store float %2, ptr %6, align 4, !tbaa !67
  %7 = load float, ptr %4, align 4, !tbaa !67
  %8 = load float, ptr %5, align 4, !tbaa !67
  %9 = load float, ptr %4, align 4, !tbaa !67
  %10 = fsub nsz float %8, %9
  %11 = load float, ptr %6, align 4, !tbaa !67
  %12 = call nsz float @llvm.fmuladd.f32(float %10, float %11, float %7)
  ret float %12
}

; Function Attrs: nounwind uwtable
define internal void @pseudocolor_filter(i32 noundef %0, i32 noundef %1, i32 noundef %2, ptr noundef %3, ptr noundef %4, ptr noundef %5, i64 noundef %6, i64 noundef %7, i64 noundef %8, ptr noundef %9, float noundef %10) #1 {
  %12 = alloca i32, align 4
  %13 = alloca i32, align 4
  %14 = alloca i32, align 4
  %15 = alloca ptr, align 8
  %16 = alloca ptr, align 8
  %17 = alloca ptr, align 8
  %18 = alloca i64, align 8
  %19 = alloca i64, align 8
  %20 = alloca i64, align 8
  %21 = alloca ptr, align 8
  %22 = alloca float, align 4
  %23 = alloca i32, align 4
  %24 = alloca i32, align 4
  %25 = alloca i32, align 4
  store i32 %0, ptr %12, align 4, !tbaa !24
  store i32 %1, ptr %13, align 4, !tbaa !24
  store i32 %2, ptr %14, align 4, !tbaa !24
  store ptr %3, ptr %15, align 8, !tbaa !29
  store ptr %4, ptr %16, align 8, !tbaa !29
  store ptr %5, ptr %17, align 8, !tbaa !29
  store i64 %6, ptr %18, align 8, !tbaa !91
  store i64 %7, ptr %19, align 8, !tbaa !91
  store i64 %8, ptr %20, align 8, !tbaa !91
  store ptr %9, ptr %21, align 8, !tbaa !96
  store float %10, ptr %22, align 4, !tbaa !67
  call void @llvm.lifetime.start.p0(i64 4, ptr %23) #11
  call void @llvm.lifetime.start.p0(i64 4, ptr %24) #11
  store i32 0, ptr %24, align 4, !tbaa !24
  br label %26

26:                                               ; preds = %92, %11
  %27 = load i32, ptr %24, align 4, !tbaa !24
  %28 = load i32, ptr %14, align 4, !tbaa !24
  %29 = icmp slt i32 %27, %28
  br i1 %29, label %30, label %95

30:                                               ; preds = %26
  store i32 0, ptr %23, align 4, !tbaa !24
  br label %31

31:                                               ; preds = %79, %30
  %32 = load i32, ptr %23, align 4, !tbaa !24
  %33 = load i32, ptr %13, align 4, !tbaa !24
  %34 = icmp slt i32 %32, %33
  br i1 %34, label %35, label %82

35:                                               ; preds = %31
  call void @llvm.lifetime.start.p0(i64 4, ptr %25) #11
  %36 = load ptr, ptr %21, align 8, !tbaa !96
  %37 = load ptr, ptr %15, align 8, !tbaa !29
  %38 = load i32, ptr %23, align 4, !tbaa !24
  %39 = sext i32 %38 to i64
  %40 = getelementptr inbounds i8, ptr %37, i64 %39
  %41 = load i8, ptr %40, align 1, !tbaa !82
  %42 = zext i8 %41 to i64
  %43 = getelementptr inbounds nuw float, ptr %36, i64 %42
  %44 = load float, ptr %43, align 4, !tbaa !67
  %45 = fptosi float %44 to i32
  store i32 %45, ptr %25, align 4, !tbaa !24
  %46 = load i32, ptr %25, align 4, !tbaa !24
  %47 = icmp sge i32 %46, 0
  br i1 %47, label %48, label %68

48:                                               ; preds = %35
  %49 = load i32, ptr %25, align 4, !tbaa !24
  %50 = load i32, ptr %12, align 4, !tbaa !24
  %51 = icmp sle i32 %49, %50
  br i1 %51, label %52, label %68

52:                                               ; preds = %48
  %53 = load ptr, ptr %16, align 8, !tbaa !29
  %54 = load i32, ptr %23, align 4, !tbaa !24
  %55 = sext i32 %54 to i64
  %56 = getelementptr inbounds i8, ptr %53, i64 %55
  %57 = load i8, ptr %56, align 1, !tbaa !82
  %58 = uitofp i8 %57 to float
  %59 = load i32, ptr %25, align 4, !tbaa !24
  %60 = sitofp i32 %59 to float
  %61 = load float, ptr %22, align 4, !tbaa !67
  %62 = call nsz float @lerpf(float noundef %58, float noundef %60, float noundef %61)
  %63 = fptoui float %62 to i8
  %64 = load ptr, ptr %17, align 8, !tbaa !29
  %65 = load i32, ptr %23, align 4, !tbaa !24
  %66 = sext i32 %65 to i64
  %67 = getelementptr inbounds i8, ptr %64, i64 %66
  store i8 %63, ptr %67, align 1, !tbaa !82
  br label %78

68:                                               ; preds = %48, %35
  %69 = load ptr, ptr %16, align 8, !tbaa !29
  %70 = load i32, ptr %23, align 4, !tbaa !24
  %71 = sext i32 %70 to i64
  %72 = getelementptr inbounds i8, ptr %69, i64 %71
  %73 = load i8, ptr %72, align 1, !tbaa !82
  %74 = load ptr, ptr %17, align 8, !tbaa !29
  %75 = load i32, ptr %23, align 4, !tbaa !24
  %76 = sext i32 %75 to i64
  %77 = getelementptr inbounds i8, ptr %74, i64 %76
  store i8 %73, ptr %77, align 1, !tbaa !82
  br label %78

78:                                               ; preds = %68, %52
  call void @llvm.lifetime.end.p0(i64 4, ptr %25) #11
  br label %79

79:                                               ; preds = %78
  %80 = load i32, ptr %23, align 4, !tbaa !24
  %81 = add nsw i32 %80, 1
  store i32 %81, ptr %23, align 4, !tbaa !24
  br label %31, !llvm.loop !98

82:                                               ; preds = %31
  %83 = load i64, ptr %18, align 8, !tbaa !91
  %84 = load ptr, ptr %15, align 8, !tbaa !29
  %85 = getelementptr inbounds i8, ptr %84, i64 %83
  store ptr %85, ptr %15, align 8, !tbaa !29
  %86 = load i64, ptr %19, align 8, !tbaa !91
  %87 = load ptr, ptr %16, align 8, !tbaa !29
  %88 = getelementptr inbounds i8, ptr %87, i64 %86
  store ptr %88, ptr %16, align 8, !tbaa !29
  %89 = load i64, ptr %20, align 8, !tbaa !91
  %90 = load ptr, ptr %17, align 8, !tbaa !29
  %91 = getelementptr inbounds i8, ptr %90, i64 %89
  store ptr %91, ptr %17, align 8, !tbaa !29
  br label %92

92:                                               ; preds = %82
  %93 = load i32, ptr %24, align 4, !tbaa !24
  %94 = add nsw i32 %93, 1
  store i32 %94, ptr %24, align 4, !tbaa !24
  br label %26, !llvm.loop !99

95:                                               ; preds = %26
  call void @llvm.lifetime.end.p0(i64 4, ptr %24) #11
  call void @llvm.lifetime.end.p0(i64 4, ptr %23) #11
  ret void
}