; Function Attrs: nofree norecurse nosync nounwind memory(argmem: readwrite) uwtable
define internal void @pseudocolor_filter(i32 noundef %0, i32 noundef %1, i32 noundef %2, ptr noundef readonly captures(none) %3, ptr noundef readonly captures(none) %4, ptr noundef writeonly captures(none) %5, i64 noundef %6, i64 noundef %7, i64 noundef %8, ptr noundef readonly captures(none) %9, float noundef %10) #8 {
  %12 = icmp sgt i32 %2, 0
  %13 = icmp sgt i32 %1, 0
  %or.cond = and i1 %12, %13
  br i1 %or.cond, label %.preheader.us.preheader, label %._crit_edge37

.preheader.us.preheader:                          ; preds = %11
  %wide.trip.count = zext nneg i32 %1 to i64
  br label %.preheader.us

.preheader.us:                                    ; preds = %.preheader.us.preheader, %._crit_edge.us
  %.036.us = phi ptr [ %32, %._crit_edge.us ], [ %3, %.preheader.us.preheader ]
  %.02735.us = phi i32 [ %35, %._crit_edge.us ], [ 0, %.preheader.us.preheader ]
  %.02934.us = phi ptr [ %33, %._crit_edge.us ], [ %4, %.preheader.us.preheader ]
  %.03033.us = phi ptr [ %34, %._crit_edge.us ], [ %5, %.preheader.us.preheader ]
  br label %14

14:                                               ; preds = %.preheader.us, %30
  %indvars.iv = phi i64 [ 0, %.preheader.us ], [ %indvars.iv.next, %30 ]
  %15 = getelementptr inbounds nuw i8, ptr %.036.us, i64 %indvars.iv
  %16 = load i8, ptr %15, align 1, !tbaa !74
  %17 = zext i8 %16 to i64
  %18 = getelementptr inbounds nuw float, ptr %9, i64 %17
  %19 = load float, ptr %18, align 4, !tbaa !62
  %20 = fptosi float %19 to i32
  %21 = icmp slt i32 %20, 0
  %.not.us = icmp slt i32 %0, %20
  %or.cond.us = or i1 %21, %.not.us
  %22 = getelementptr inbounds nuw i8, ptr %.02934.us, i64 %indvars.iv
  %23 = load i8, ptr %22, align 1, !tbaa !74
  br i1 %or.cond.us, label %30, label %24

24:                                               ; preds = %14
  %25 = uitofp i8 %23 to float
  %26 = uitofp nneg i32 %20 to float
  %27 = fsub nsz float %26, %25
  %28 = tail call nsz noundef float @llvm.fmuladd.f32(float %27, float %10, float %25)
  %29 = fptoui float %28 to i8
  br label %30

30:                                               ; preds = %14, %24
  %.sink = phi i8 [ %29, %24 ], [ %23, %14 ]
  %31 = getelementptr inbounds nuw i8, ptr %.03033.us, i64 %indvars.iv
  store i8 %.sink, ptr %31, align 1, !tbaa !74
  %indvars.iv.next = add nuw nsw i64 %indvars.iv, 1
  %exitcond.not = icmp eq i64 %indvars.iv.next, %wide.trip.count
  br i1 %exitcond.not, label %._crit_edge.us, label %14, !llvm.loop !83

._crit_edge.us:                                   ; preds = %30
  %32 = getelementptr inbounds i8, ptr %.036.us, i64 %6
  %33 = getelementptr inbounds i8, ptr %.02934.us, i64 %7
  %34 = getelementptr inbounds i8, ptr %.03033.us, i64 %8
  %35 = add nuw nsw i32 %.02735.us, 1
  %exitcond40.not = icmp eq i32 %35, %2
  br i1 %exitcond40.not, label %._crit_edge37, label %.preheader.us, !llvm.loop !84

._crit_edge37:                                    ; preds = %._crit_edge.us, %11
  ret void
}